target datalayout = "e-m:e-p270:32:32-p271:32:32-p272:64:64-i64:64-i128:128-f80:128-n8:16:32:64-S128"
target triple = "x86_64-pc-linux-gnu"

%struct.merged_subiter = type { %struct.reftable_iterator, %struct.reftable_record }
%struct.reftable_iterator = type { ptr, ptr }
%struct.reftable_record = type { i8, %union.anon }
%union.anon = type { %struct.reftable_log_record }
%struct.reftable_log_record = type { ptr, i64, i64, i32, %union.anon.1 }
%union.anon.1 = type { %struct.anon.2 }
%struct.anon.2 = type { [32 x i8], [32 x i8], ptr, ptr, i64, i16, ptr, i64 }
%struct.merged_iter = type { ptr, %struct.merged_iter_pqueue, i64, i32, i64 }
%struct.merged_iter_pqueue = type { ptr, i64, i64 }
%struct.pq_entry = type { i64, ptr }

; Function Attrs: nounwind uwtable
define internal i32 @merged_iter_advance_subiter(ptr noundef %0, i64 noundef %1) #0 {
  %3 = alloca i32, align 4
  %4 = alloca ptr, align 8
  %5 = alloca i64, align 8
  %6 = alloca %struct.pq_entry, align 8
  %7 = alloca i32, align 4
  %8 = alloca i32, align 4
  store ptr %0, ptr %4, align 8, !tbaa !32
  store i64 %1, ptr %5, align 8, !tbaa !11
  call void @llvm.lifetime.start.p0(i64 16, ptr %6) #6
  %9 = getelementptr inbounds nuw %struct.pq_entry, ptr %6, i32 0, i32 0
  %10 = load i64, ptr %5, align 8, !tbaa !11
  store i64 %10, ptr %9, align 8, !tbaa !55
  %11 = getelementptr inbounds nuw %struct.pq_entry, ptr %6, i32 0, i32 1
  %12 = load ptr, ptr %4, align 8, !tbaa !32
  %13 = getelementptr inbounds nuw %struct.merged_iter, ptr %12, i32 0, i32 0
  %14 = load ptr, ptr %13, align 8, !tbaa !41
  %15 = load i64, ptr %5, align 8, !tbaa !11
  %16 = getelementptr inbounds nuw %struct.merged_subiter, ptr %14, i64 %15
  %17 = getelementptr inbounds nuw %struct.merged_subiter, ptr %16, i32 0, i32 1
  store ptr %17, ptr %11, align 8, !tbaa !57
  call void @llvm.lifetime.start.p0(i64 4, ptr %7) #6
  %18 = load ptr, ptr %4, align 8, !tbaa !32
  %19 = getelementptr inbounds nuw %struct.merged_iter, ptr %18, i32 0, i32 0
  %20 = load ptr, ptr %19, align 8, !tbaa !41
  %21 = load i64, ptr %5, align 8, !tbaa !11
  %22 = getelementptr inbounds nuw %struct.merged_subiter, ptr %20, i64 %21
  %23 = getelementptr inbounds nuw %struct.merged_subiter, ptr %22, i32 0, i32 0
  %24 = load ptr, ptr %4, align 8, !tbaa !32
  %25 = getelementptr inbounds nuw %struct.merged_iter, ptr %24, i32 0, i32 0
  %26 = load ptr, ptr %25, align 8, !tbaa !41
  %27 = load i64, ptr %5, align 8, !tbaa !11
  %28 = getelementptr inbounds nuw %struct.merged_subiter, ptr %26, i64 %27
  %29 = getelementptr inbounds nuw %struct.merged_subiter, ptr %28, i32 0, i32 1
  %30 = call i32 @iterator_next(ptr noundef %23, ptr noundef %29)
  store i32 %30, ptr %7, align 4, !tbaa !13
  %31 = load i32, ptr %7, align 4, !tbaa !13
  %32 = icmp ne i32 %31, 0
  br i1 %32, label %33, label %35

33:                                               ; preds = %2
  %34 = load i32, ptr %7, align 4, !tbaa !13
  store i32 %34, ptr %3, align 4
  store i32 1, ptr %8, align 4
  br label %44

35:                                               ; preds = %2
  %36 = load ptr, ptr %4, align 8, !tbaa !32
  %37 = getelementptr inbounds nuw %struct.merged_iter, ptr %36, i32 0, i32 1
  %38 = call i32 @merged_iter_pqueue_add(ptr noundef %37, ptr noundef %6)
  store i32 %38, ptr %7, align 4, !tbaa !13
  %39 = load i32, ptr %7, align 4, !tbaa !13
  %40 = icmp ne i32 %39, 0
  br i1 %40, label %41, label %43

41:                                               ; preds = %35
  %42 = load i32, ptr %7, align 4, !tbaa !13
  store i32 %42, ptr %3, align 4
  store i32 1, ptr %8, align 4
  br label %44

43:                                               ; preds = %35
  store i32 0, ptr %3, align 4
  store i32 1, ptr %8, align 4
  br label %44

44:                                               ; preds = %43, %41, %33
  call void @llvm.lifetime.end.p0(i64 4, ptr %7) #6
  call void @llvm.lifetime.end.p0(i64 16, ptr %6) #6
  %45 = load i32, ptr %3, align 4
  ret i32 %45
}

; Function Attrs: inlinehint nounwind uwtable
define internal i32 @merged_iter_pqueue_is_empty(ptr noundef byval(%struct.merged_iter_pqueue) align 8 %0) #3 {
  %2 = getelementptr inbounds nuw %struct.merged_iter_pqueue, ptr %0, i32 0, i32 1
  %3 = load i64, ptr %2, align 8, !tbaa !54
  %4 = icmp eq i64 %3, 0
  %5 = zext i1 %4 to i32
  ret i32 %5
}

; Function Attrs: nounwind uwtable
define internal i32 @merged_iter_seek(ptr noundef %0, ptr noundef %1) #0 {
  %3 = alloca i32, align 4
  %4 = alloca ptr, align 8
  %5 = alloca ptr, align 8
  %6 = alloca i32, align 4
  %7 = alloca %struct.pq_entry, align 8
  %8 = alloca i64, align 8
  %9 = alloca i32, align 4
  store ptr %0, ptr %4, align 8, !tbaa !32
  store ptr %1, ptr %5, align 8, !tbaa !49
  call void @llvm.lifetime.start.p0(i64 4, ptr %6) #6
  %10 = load ptr, ptr %4, align 8, !tbaa !32
  %11 = getelementptr inbounds nuw %struct.merged_iter, ptr %10, i32 0, i32 4
  store i64 -1, ptr %11, align 8, !tbaa !35
  br label %12

12:                                               ; preds = %18, %2
  %13 = load ptr, ptr %4, align 8, !tbaa !32
  %14 = getelementptr inbounds nuw %struct.merged_iter, ptr %13, i32 0, i32 1
  %15 = call i32 @merged_iter_pqueue_is_empty(ptr noundef byval(%struct.merged_iter_pqueue) align 8 %14)
  %16 = icmp ne i32 %15, 0
  %17 = xor i1 %16, true
  br i1 %17, label %18, label %26

18:                                               ; preds = %12
  %19 = load ptr, ptr %4, align 8, !tbaa !32
  %20 = getelementptr inbounds nuw %struct.merged_iter, ptr %19, i32 0, i32 1
  %21 = call { i64, ptr } @merged_iter_pqueue_remove(ptr noundef %20)
  %22 = getelementptr inbounds nuw { i64, ptr }, ptr %7, i32 0, i32 0
  %23 = extractvalue { i64, ptr } %21, 0
  store i64 %23, ptr %22, align 8
  %24 = getelementptr inbounds nuw { i64, ptr }, ptr %7, i32 0, i32 1
  %25 = extractvalue { i64, ptr } %21, 1
  store ptr %25, ptr %24, align 8
  br label %12, !llvm.loop !52

26:                                               ; preds = %12
  call void @llvm.lifetime.start.p0(i64 8, ptr %8) #6
  store i64 0, ptr %8, align 8, !tbaa !11
  br label %27

27:                                               ; preds = %60, %26
  %28 = load i64, ptr %8, align 8, !tbaa !11
  %29 = load ptr, ptr %4, align 8, !tbaa !32
  %30 = getelementptr inbounds nuw %struct.merged_iter, ptr %29, i32 0, i32 2
  %31 = load i64, ptr %30, align 8, !tbaa !42
  %32 = icmp ult i64 %28, %31
  br i1 %32, label %34, label %33

33:                                               ; preds = %27
  store i32 4, ptr %9, align 4
  br label %63

34:                                               ; preds = %27
  %35 = load ptr, ptr %4, align 8, !tbaa !32
  %36 = getelementptr inbounds nuw %struct.merged_iter, ptr %35, i32 0, i32 0
  %37 = load ptr, ptr %36, align 8, !tbaa !41
  %38 = load i64, ptr %8, align 8, !tbaa !11
  %39 = getelementptr inbounds nuw %struct.merged_subiter, ptr %37, i64 %38
  %40 = getelementptr inbounds nuw %struct.merged_subiter, ptr %39, i32 0, i32 0
  %41 = load ptr, ptr %5, align 8, !tbaa !49
  %42 = call i32 @iterator_seek(ptr noundef %40, ptr noundef %41)
  store i32 %42, ptr %6, align 4, !tbaa !13
  %43 = load i32, ptr %6, align 4, !tbaa !13
  %44 = icmp slt i32 %43, 0
  br i1 %44, label %45, label %47

45:                                               ; preds = %34
  %46 = load i32, ptr %6, align 4, !tbaa !13
  store i32 %46, ptr %3, align 4
  store i32 1, ptr %9, align 4
  br label %63

47:                                               ; preds = %34
  %48 = load i32, ptr %6, align 4, !tbaa !13
  %49 = icmp sgt i32 %48, 0
  br i1 %49, label %50, label %51

50:                                               ; preds = %47
  br label %60

51:                                               ; preds = %47
  %52 = load ptr, ptr %4, align 8, !tbaa !32
  %53 = load i64, ptr %8, align 8, !tbaa !11
  %54 = call i32 @merged_iter_advance_subiter(ptr noundef %52, i64 noundef %53)
  store i32 %54, ptr %6, align 4, !tbaa !13
  %55 = load i32, ptr %6, align 4, !tbaa !13
  %56 = icmp slt i32 %55, 0
  br i1 %56, label %57, label %59

57:                                               ; preds = %51
  %58 = load i32, ptr %6, align 4, !tbaa !13
  store i32 %58, ptr %3, align 4
  store i32 1, ptr %9, align 4
  br label %63

59:                                               ; preds = %51
  br label %60

60:                                               ; preds = %59, %50
  %61 = load i64, ptr %8, align 8, !tbaa !11
  %62 = add i64 %61, 1
  store i64 %62, ptr %8, align 8, !tbaa !11
  br label %27, !llvm.loop !53

63:                                               ; preds = %57, %45, %33
  call void @llvm.lifetime.end.p0(i64 8, ptr %8) #6
  %64 = load i32, ptr %9, align 4
  switch i32 %64, label %66 [
    i32 4, label %65
  ]

65:                                               ; preds = %63
  store i32 0, ptr %3, align 4
  store i32 1, ptr %9, align 4
  br label %66

66:                                               ; preds = %65, %63
  call void @llvm.lifetime.end.p0(i64 4, ptr %6) #6
  %67 = load i32, ptr %3, align 4
  ret i32 %67
}

; Function Attrs: nounwind uwtable
define internal i32 @merged_iter_seek_void(ptr noundef %0, ptr noundef %1) #0 {
  %3 = alloca ptr, align 8
  %4 = alloca ptr, align 8
  store ptr %0, ptr %3, align 8, !tbaa !48
  store ptr %1, ptr %4, align 8, !tbaa !49
  %5 = load ptr, ptr %3, align 8, !tbaa !48
  %6 = load ptr, ptr %4, align 8, !tbaa !49
  %7 = call i32 @merged_iter_seek(ptr noundef %5, ptr noundef %6)
  ret i32 %7
}