; Function Attrs: nounwind uwtable
define internal range(i32 -2147483648, 1) i32 @merged_iter_seek_void(ptr noundef initializes((48, 56)) %0, ptr noundef %1) #0 {
  %3 = alloca %struct.pq_entry, align 8
  %4 = getelementptr inbounds nuw i8, ptr %0, i64 48
  store i64 -1, ptr %4, align 8, !tbaa !23
  %5 = getelementptr inbounds nuw i8, ptr %0, i64 8
  %6 = getelementptr i8, ptr %0, i64 16
  %.val24.i = load i64, ptr %6, align 8, !tbaa !36
  %.not25.i = icmp eq i64 %.val24.i, 0
  br i1 %.not25.i, label %.preheader.i, label %.lr.ph.i

.preheader.i:                                     ; preds = %.lr.ph.i, %2
  %7 = getelementptr inbounds nuw i8, ptr %0, i64 32
  %8 = load i64, ptr %7, align 8, !tbaa !31
  %.not2326.not.i = icmp eq i64 %8, 0
  br i1 %.not2326.not.i, label %merged_iter_seek.exit, label %.lr.ph28.i

.lr.ph28.i:                                       ; preds = %.preheader.i
  %9 = getelementptr inbounds nuw i8, ptr %3, i64 8
  br label %11

.lr.ph.i:                                         ; preds = %2, %.lr.ph.i
  %10 = tail call { i64, ptr } @merged_iter_pqueue_remove(ptr noundef nonnull %5) #6
  %.val.i = load i64, ptr %6, align 8, !tbaa !36
  %.not.i = icmp eq i64 %.val.i, 0
  br i1 %.not.i, label %.preheader.i, label %.lr.ph.i, !llvm.loop !37

11:                                               ; preds = %26, %.lr.ph28.i
  %.01727.i = phi i64 [ 0, %.lr.ph28.i ], [ %27, %26 ]
  %12 = load ptr, ptr %0, align 8, !tbaa !30
  %13 = getelementptr inbounds nuw %struct.merged_subiter, ptr %12, i64 %.01727.i
  %14 = call i32 @iterator_seek(ptr noundef %13, ptr noundef %1) #6
  %15 = icmp slt i32 %14, 0
  br i1 %15, label %merged_iter_seek.exit, label %16

16:                                               ; preds = %11
  %.not22.i = icmp eq i32 %14, 0
  br i1 %.not22.i, label %17, label %26

17:                                               ; preds = %16
  call void @llvm.lifetime.start.p0(i64 16, ptr nonnull %3) #6
  store i64 %.01727.i, ptr %3, align 8, !tbaa !38
  %18 = load ptr, ptr %0, align 8, !tbaa !30
  %19 = getelementptr inbounds nuw %struct.merged_subiter, ptr %18, i64 %.01727.i, i32 1
  store ptr %19, ptr %9, align 8, !tbaa !41
  %20 = getelementptr inbounds nuw %struct.merged_subiter, ptr %18, i64 %.01727.i
  %21 = getelementptr inbounds nuw i8, ptr %20, i64 16
  %22 = call i32 @iterator_next(ptr noundef %20, ptr noundef nonnull %21) #6
  %.not.i.i = icmp eq i32 %22, 0
  br i1 %.not.i.i, label %23, label %merged_iter_advance_subiter.exit.i

23:                                               ; preds = %17
  %24 = call i32 @merged_iter_pqueue_add(ptr noundef nonnull %5, ptr noundef nonnull %3) #6
  br label %merged_iter_advance_subiter.exit.i

merged_iter_advance_subiter.exit.i:               ; preds = %23, %17
  %.0.i.i = phi i32 [ %22, %17 ], [ %24, %23 ]
  call void @llvm.lifetime.end.p0(i64 16, ptr nonnull %3) #6
  %25 = icmp slt i32 %.0.i.i, 0
  br i1 %25, label %merged_iter_seek.exit, label %26

26:                                               ; preds = %merged_iter_advance_subiter.exit.i, %16
  %27 = add nuw i64 %.01727.i, 1
  %28 = load i64, ptr %7, align 8, !tbaa !31
  %.not23.i = icmp ult i64 %27, %28
  br i1 %.not23.i, label %11, label %merged_iter_seek.exit, !llvm.loop !42

merged_iter_seek.exit:                            ; preds = %11, %merged_iter_advance_subiter.exit.i, %26, %.preheader.i
  %spec.select.i = phi i32 [ 0, %.preheader.i ], [ 0, %26 ], [ %14, %11 ], [ %.0.i.i, %merged_iter_advance_subiter.exit.i ]
  ret i32 %spec.select.i
}